target datalayout = "e-m:e-p270:32:32-p271:32:32-p272:64:64-i64:64-i128:128-f80:128-n8:16:32:64-S128"
target triple = "x86_64-pc-linux-gnu"

%struct._object = type { %union.anon, ptr }
%union.anon = type { i64 }
%struct.anon = type { i32, i32 }
%struct.PyMutex = type { i8 }
%struct._xid_lookup_state = type { %struct._PyXIData_registry_t }
%struct._PyXIData_registry_t = type { i32, i32, %struct.PyMutex, ptr }
%struct.llist_node = type { ptr, ptr }
%struct.PyWideStringList = type { i64, ptr }
%struct._pending_calls = type { ptr, %struct.PyMutex, i32, i32, i32, [300 x %struct._pending_call], i32, i32 }
%struct._pending_call = type { ptr, ptr, i32 }
%struct._stoptheworld_state = type { %struct.PyMutex, i8, i8, i8, %struct.PyEvent, i64, ptr }
%struct.PyEvent = type { i8 }
%struct.PyGC_Head = type { i64, i64 }
%struct._is = type { %struct._ceval_state, ptr, i64, i64, i32, i64, i32, i32, i32, i64, %struct.pythreads, ptr, ptr, i64, %struct._gc_runtime_state, ptr, ptr, %struct._import_state, %struct._gil_runtime_state, %struct.codecs_state, %struct.PyConfig, i64, ptr, ptr, ptr, ptr, [8 x ptr], i8, i64, [255 x ptr], %struct._PyXI_state_t, ptr, ptr, ptr, %struct._warnings_runtime_state, %struct.atexit_state, %struct._stoptheworld_state, %struct._qsbr_shared, ptr, ptr, [8 x ptr], [8 x ptr], [8 x ptr], i8, i8, %struct._py_object_state, %struct._Py_unicode_state, %struct._Py_long_state, %struct._dtoa_state, %struct._py_func_state, %struct._py_code_state, %struct._Py_dict_state, %struct._Py_exc_state, %struct._Py_mem_interp_free_queue, %struct.ast_state, %struct.types_state, %struct.callable_cache, i8, ptr, i64, %struct._rare_events, ptr, %struct._Py_GlobalMonitors, i8, i8, i64, i64, [8 x [19 x ptr]], [8 x ptr], [8 x i64], %struct._Py_interp_cached_objects, %struct._Py_interp_static_objects, i64, %struct._PyThreadStateImpl }
%struct._ceval_state = type { i64, i32, ptr, i32, %struct._pending_calls }
%struct.pythreads = type { i64, ptr, ptr, ptr, i64, i64 }
%struct._gc_runtime_state = type { ptr, i32, i32, i32, %struct.gc_generation, [2 x %struct.gc_generation], %struct.gc_generation, [3 x %struct.gc_generation_stats], i32, ptr, ptr, i64, i64, i32, i32 }
%struct.gc_generation = type { %struct.PyGC_Head, i32, i32 }
%struct.gc_generation_stats = type { i64, i64, i64 }
%struct._import_state = type { ptr, ptr, ptr, i32, i32, i32, ptr, %struct._PyRecursiveMutex, %struct.anon.800 }
%struct._PyRecursiveMutex = type { %struct.PyMutex, i64, i64 }
%struct.anon.800 = type { i32, i64, i32 }
%struct._gil_runtime_state = type { i64, ptr, i32, i64, %union.pthread_cond_t, %union.pthread_mutex_t, %union.pthread_cond_t, %union.pthread_mutex_t }
%union.pthread_cond_t = type { %struct.__pthread_cond_s }
%struct.__pthread_cond_s = type { %union.__atomic_wide_counter, %union.__atomic_wide_counter, [2 x i32], [2 x i32], i32, i32, [2 x i32] }
%union.__atomic_wide_counter = type { i64 }
%union.pthread_mutex_t = type { %struct.__pthread_mutex_s }
%struct.__pthread_mutex_s = type { i32, i32, i32, i32, i32, i16, i16, %struct.__pthread_internal_list }
%struct.__pthread_internal_list = type { ptr, ptr }
%struct.codecs_state = type { ptr, ptr, ptr, i32 }
%struct.PyConfig = type { i32, i32, i32, i32, i32, i32, i64, i32, i32, i32, i32, i32, i32, i32, ptr, i32, ptr, ptr, ptr, i32, %struct.PyWideStringList, %struct.PyWideStringList, %struct.PyWideStringList, %struct.PyWideStringList, i32, i32, i32, i32, i32, i32, i32, i32, i32, i32, i32, i32, i32, ptr, ptr, ptr, i32, i32, i32, i32, i32, ptr, ptr, ptr, ptr, i32, %struct.PyWideStringList, ptr, ptr, ptr, ptr, ptr, ptr, ptr, i32, ptr, ptr, ptr, ptr, i32, i32, i32 }
%struct._PyXI_state_t = type { %struct._xid_lookup_state, %struct.xi_exceptions }
%struct.xi_exceptions = type { ptr, ptr, ptr }
%struct._warnings_runtime_state = type { ptr, ptr, ptr, %struct._PyRecursiveMutex, i64 }
%struct.atexit_state = type { ptr, ptr }
%struct._qsbr_shared = type { i64, i64, ptr, i64, %struct.PyMutex, ptr }
%struct._py_object_state = type { %struct._Py_freelists, i32 }
%struct._Py_freelists = type { %struct._Py_freelist, %struct._Py_freelist, [20 x %struct._Py_freelist], %struct._Py_freelist, %struct._Py_freelist, %struct._Py_freelist, %struct._Py_freelist, %struct._Py_freelist, %struct._Py_freelist, %struct._Py_freelist, %struct._Py_freelist, %struct._Py_freelist, %struct._Py_freelist, %struct._Py_freelist, %struct._Py_freelist, %struct._Py_freelist }
%struct._Py_freelist = type { ptr, i64 }
%struct._Py_unicode_state = type { %struct._Py_unicode_fs_codec, ptr, %struct._Py_unicode_ids }
%struct._Py_unicode_fs_codec = type { ptr, i32, ptr, i32 }
%struct._Py_unicode_ids = type { i64, ptr }
%struct._Py_long_state = type { i32 }
%struct._dtoa_state = type { [8 x ptr], [8 x ptr], [288 x double], ptr }
%struct._py_func_state = type { i32, [4096 x %struct._func_version_cache_item] }
%struct._func_version_cache_item = type { ptr, ptr }
%struct._py_code_state = type { %struct.PyMutex, ptr }
%struct._Py_dict_state = type { i32, [8 x ptr] }
%struct._Py_exc_state = type { ptr, ptr, i32, ptr }
%struct._Py_mem_interp_free_queue = type { i32, %struct.PyMutex, %struct.llist_node }
%struct.ast_state = type { %struct._PyOnceFlag, i32, ptr, ptr, ptr, ptr, ptr, ptr, ptr, ptr, ptr, ptr, ptr, ptr, ptr, ptr, ptr, ptr, ptr, ptr, ptr, ptr, ptr, ptr, ptr, ptr, ptr, ptr, ptr, ptr, ptr, ptr, ptr, ptr, ptr, ptr, ptr, ptr, ptr, ptr, ptr, ptr, ptr, ptr, ptr, ptr, ptr, ptr, ptr, ptr, ptr, ptr, ptr, ptr, ptr, ptr, ptr, ptr, ptr, ptr, ptr, ptr, ptr, ptr, ptr, ptr, ptr, ptr, ptr, ptr, ptr, ptr, ptr, ptr, ptr, ptr, ptr, ptr, ptr, ptr, ptr, ptr, ptr, ptr, ptr, ptr, ptr, ptr, ptr, ptr, ptr, ptr, ptr, ptr, ptr, ptr, ptr, ptr, ptr, ptr, ptr, ptr, ptr, ptr, ptr, ptr, ptr, ptr, ptr, ptr, ptr, ptr, ptr, ptr, ptr, ptr, ptr, ptr, ptr, ptr, ptr, ptr, ptr, ptr, ptr, ptr, ptr, ptr, ptr, ptr, ptr, ptr, ptr, ptr, ptr, ptr, ptr, ptr, ptr, ptr, ptr, ptr, ptr, ptr, ptr, ptr, ptr, ptr, ptr, ptr, ptr, ptr, ptr, ptr, ptr, ptr, ptr, ptr, ptr, ptr, ptr, ptr, ptr, ptr, ptr, ptr, ptr, ptr, ptr, ptr, ptr, ptr, ptr, ptr, ptr, ptr, ptr, ptr, ptr, ptr, ptr, ptr, ptr, ptr, ptr, ptr, ptr, ptr, ptr, ptr, ptr, ptr, ptr, ptr, ptr, ptr, ptr, ptr, ptr, ptr, ptr, ptr, ptr, ptr, ptr, ptr, ptr, ptr, ptr, ptr, ptr, ptr, ptr, ptr, ptr, ptr, ptr, ptr, ptr, ptr, ptr, ptr, ptr, ptr, ptr, ptr, ptr, ptr, ptr, ptr, ptr, ptr, ptr, ptr, ptr, ptr, ptr, ptr, ptr, ptr, ptr, ptr, ptr, ptr, ptr }
%struct._PyOnceFlag = type { i8 }
%struct.types_state = type { i32, %struct.type_cache, %struct.anon.802, %struct.anon.803, %struct.PyMutex, [4096 x ptr] }
%struct.type_cache = type { [4096 x %struct.type_cache_entry] }
%struct.type_cache_entry = type { i32, ptr, ptr }
%struct.anon.802 = type { i64, [200 x %struct.managed_static_type_state] }
%struct.managed_static_type_state = type { ptr, i32, i32, i32, ptr, ptr, ptr }
%struct.anon.803 = type { i64, i64, [10 x %struct.managed_static_type_state] }
%struct.callable_cache = type { ptr, ptr, ptr, ptr }
%struct._rare_events = type { i8, i8, i8, i8, i8 }
%struct._Py_GlobalMonitors = type { [16 x i8] }
%struct._Py_interp_cached_objects = type { ptr, ptr, ptr, [10 x ptr], ptr, ptr, ptr, ptr, ptr, ptr, ptr }
%struct._Py_interp_static_objects = type { %struct.anon.804 }
%struct.anon.804 = type { i32, %struct.PyGC_Head, %struct.PyHamtObject, %struct.PyBaseExceptionObject }
%struct.PyHamtObject = type { %struct._object, ptr, ptr, i64 }
%struct.PyBaseExceptionObject = type { %struct._object, ptr, ptr, ptr, ptr, ptr, ptr, i8 }
%struct._PyThreadStateImpl = type { %struct._ts, ptr, ptr, ptr, %struct.llist_node }
%struct._ts = type { ptr, ptr, ptr, i64, %struct.anon.805, i32, i32, i32, i32, i32, i32, i32, i32, ptr, ptr, ptr, ptr, ptr, ptr, ptr, ptr, i32, ptr, i64, i64, ptr, i64, i32, ptr, ptr, ptr, i64, i64, ptr, ptr, ptr, %struct._err_stackitem, ptr, i64, ptr, ptr }
%struct.anon.805 = type { i32 }
%struct._err_stackitem = type { ptr, ptr }

; Function Attrs: alwaysinline nounwind uwtable
define internal i32 @_Py_IsImmortal(ptr noundef %0) #4 {
  %2 = alloca ptr, align 8
  store ptr %0, ptr %2, align 8, !tbaa !4
  %3 = load ptr, ptr %2, align 8, !tbaa !4
  %4 = getelementptr inbounds nuw %struct._object, ptr %3, i32 0, i32 0
  %5 = getelementptr inbounds nuw %struct.anon, ptr %4, i32 0, i32 0
  %6 = load i32, ptr %5, align 8, !tbaa !27
  %7 = icmp slt i32 %6, 0
  %8 = zext i1 %7 to i32
  ret i32 %8
}

; Function Attrs: alwaysinline nounwind uwtable
define internal void @Py_DECREF(ptr noundef %0) #4 {
  %2 = alloca ptr, align 8
  store ptr %0, ptr %2, align 8, !tbaa !4
  %3 = load ptr, ptr %2, align 8, !tbaa !4
  %4 = call i32 @_Py_IsImmortal(ptr noundef %3)
  %5 = icmp ne i32 %4, 0
  br i1 %5, label %6, label %7

6:                                                ; preds = %1
  br label %16

7:                                                ; preds = %1
  %8 = load ptr, ptr %2, align 8, !tbaa !4
  %9 = getelementptr inbounds nuw %struct._object, ptr %8, i32 0, i32 0
  %10 = getelementptr inbounds nuw %struct.anon, ptr %9, i32 0, i32 0
  %11 = load i32, ptr %10, align 8, !tbaa !27
  %12 = add i32 %11, -1
  store i32 %12, ptr %10, align 8, !tbaa !27
  %13 = icmp eq i32 %12, 0
  br i1 %13, label %14, label %16

14:                                               ; preds = %7
  %15 = load ptr, ptr %2, align 8, !tbaa !4
  call void @_Py_Dealloc(ptr noundef %15)
  br label %16

16:                                               ; preds = %6, %14, %7
  ret void
}

; Function Attrs: nounwind uwtable
define hidden void @_Py_clear_generic_types(ptr noundef %0) #0 {
  %2 = alloca ptr, align 8
  %3 = alloca ptr, align 8
  %4 = alloca ptr, align 8
  %5 = alloca ptr, align 8
  %6 = alloca ptr, align 8
  %7 = alloca ptr, align 8
  %8 = alloca ptr, align 8
  %9 = alloca ptr, align 8
  %10 = alloca ptr, align 8
  %11 = alloca ptr, align 8
  %12 = alloca ptr, align 8
  %13 = alloca ptr, align 8
  %14 = alloca ptr, align 8
  %15 = alloca ptr, align 8
  %16 = alloca ptr, align 8
  store ptr %0, ptr %2, align 8, !tbaa !144
  br label %17

17:                                               ; preds = %1
  call void @llvm.lifetime.start.p0(i64 8, ptr %3) #6
  %18 = load ptr, ptr %2, align 8, !tbaa !144
  %19 = getelementptr inbounds nuw %struct._is, ptr %18, i32 0, i32 70
  %20 = getelementptr inbounds nuw %struct._Py_interp_cached_objects, ptr %19, i32 0, i32 4
  store ptr %20, ptr %3, align 8, !tbaa !153
  call void @llvm.lifetime.start.p0(i64 8, ptr %4) #6
  %21 = load ptr, ptr %3, align 8, !tbaa !153
  %22 = load ptr, ptr %21, align 8, !tbaa !9
  store ptr %22, ptr %4, align 8, !tbaa !9
  %23 = load ptr, ptr %4, align 8, !tbaa !9
  %24 = icmp ne ptr %23, null
  br i1 %24, label %25, label %28

25:                                               ; preds = %17
  %26 = load ptr, ptr %3, align 8, !tbaa !153
  store ptr null, ptr %26, align 8, !tbaa !9
  %27 = load ptr, ptr %4, align 8, !tbaa !9
  call void @Py_DECREF(ptr noundef %27)
  br label %28

28:                                               ; preds = %25, %17
  call void @llvm.lifetime.end.p0(i64 8, ptr %4) #6
  call void @llvm.lifetime.end.p0(i64 8, ptr %3) #6
  br label %29

29:                                               ; preds = %28
  br label %30

30:                                               ; preds = %29
  call void @llvm.lifetime.start.p0(i64 8, ptr %5) #6
  %31 = load ptr, ptr %2, align 8, !tbaa !144
  %32 = getelementptr inbounds nuw %struct._is, ptr %31, i32 0, i32 70
  %33 = getelementptr inbounds nuw %struct._Py_interp_cached_objects, ptr %32, i32 0, i32 5
  store ptr %33, ptr %5, align 8, !tbaa !153
  call void @llvm.lifetime.start.p0(i64 8, ptr %6) #6
  %34 = load ptr, ptr %5, align 8, !tbaa !153
  %35 = load ptr, ptr %34, align 8, !tbaa !9
  store ptr %35, ptr %6, align 8, !tbaa !9
  %36 = load ptr, ptr %6, align 8, !tbaa !9
  %37 = icmp ne ptr %36, null
  br i1 %37, label %38, label %41

38:                                               ; preds = %30
  %39 = load ptr, ptr %5, align 8, !tbaa !153
  store ptr null, ptr %39, align 8, !tbaa !9
  %40 = load ptr, ptr %6, align 8, !tbaa !9
  call void @Py_DECREF(ptr noundef %40)
  br label %41

41:                                               ; preds = %38, %30
  call void @llvm.lifetime.end.p0(i64 8, ptr %6) #6
  call void @llvm.lifetime.end.p0(i64 8, ptr %5) #6
  br label %42

42:                                               ; preds = %41
  br label %43

43:                                               ; preds = %42
  call void @llvm.lifetime.start.p0(i64 8, ptr %7) #6
  %44 = load ptr, ptr %2, align 8, !tbaa !144
  %45 = getelementptr inbounds nuw %struct._is, ptr %44, i32 0, i32 70
  %46 = getelementptr inbounds nuw %struct._Py_interp_cached_objects, ptr %45, i32 0, i32 6
  store ptr %46, ptr %7, align 8, !tbaa !153
  call void @llvm.lifetime.start.p0(i64 8, ptr %8) #6
  %47 = load ptr, ptr %7, align 8, !tbaa !153
  %48 = load ptr, ptr %47, align 8, !tbaa !9
  store ptr %48, ptr %8, align 8, !tbaa !9
  %49 = load ptr, ptr %8, align 8, !tbaa !9
  %50 = icmp ne ptr %49, null
  br i1 %50, label %51, label %54

51:                                               ; preds = %43
  %52 = load ptr, ptr %7, align 8, !tbaa !153
  store ptr null, ptr %52, align 8, !tbaa !9
  %53 = load ptr, ptr %8, align 8, !tbaa !9
  call void @Py_DECREF(ptr noundef %53)
  br label %54

54:                                               ; preds = %51, %43
  call void @llvm.lifetime.end.p0(i64 8, ptr %8) #6
  call void @llvm.lifetime.end.p0(i64 8, ptr %7) #6
  br label %55

55:                                               ; preds = %54
  br label %56

56:                                               ; preds = %55
  call void @llvm.lifetime.start.p0(i64 8, ptr %9) #6
  %57 = load ptr, ptr %2, align 8, !tbaa !144
  %58 = getelementptr inbounds nuw %struct._is, ptr %57, i32 0, i32 70
  %59 = getelementptr inbounds nuw %struct._Py_interp_cached_objects, ptr %58, i32 0, i32 7
  store ptr %59, ptr %9, align 8, !tbaa !153
  call void @llvm.lifetime.start.p0(i64 8, ptr %10) #6
  %60 = load ptr, ptr %9, align 8, !tbaa !153
  %61 = load ptr, ptr %60, align 8, !tbaa !9
  store ptr %61, ptr %10, align 8, !tbaa !9
  %62 = load ptr, ptr %10, align 8, !tbaa !9
  %63 = icmp ne ptr %62, null
  br i1 %63, label %64, label %67

64:                                               ; preds = %56
  %65 = load ptr, ptr %9, align 8, !tbaa !153
  store ptr null, ptr %65, align 8, !tbaa !9
  %66 = load ptr, ptr %10, align 8, !tbaa !9
  call void @Py_DECREF(ptr noundef %66)
  br label %67

67:                                               ; preds = %64, %56
  call void @llvm.lifetime.end.p0(i64 8, ptr %10) #6
  call void @llvm.lifetime.end.p0(i64 8, ptr %9) #6
  br label %68

68:                                               ; preds = %67
  br label %69

69:                                               ; preds = %68
  call void @llvm.lifetime.start.p0(i64 8, ptr %11) #6
  %70 = load ptr, ptr %2, align 8, !tbaa !144
  %71 = getelementptr inbounds nuw %struct._is, ptr %70, i32 0, i32 70
  %72 = getelementptr inbounds nuw %struct._Py_interp_cached_objects, ptr %71, i32 0, i32 8
  store ptr %72, ptr %11, align 8, !tbaa !153
  call void @llvm.lifetime.start.p0(i64 8, ptr %12) #6
  %73 = load ptr, ptr %11, align 8, !tbaa !153
  %74 = load ptr, ptr %73, align 8, !tbaa !9
  store ptr %74, ptr %12, align 8, !tbaa !9
  %75 = load ptr, ptr %12, align 8, !tbaa !9
  %76 = icmp ne ptr %75, null
  br i1 %76, label %77, label %80

77:                                               ; preds = %69
  %78 = load ptr, ptr %11, align 8, !tbaa !153
  store ptr null, ptr %78, align 8, !tbaa !9
  %79 = load ptr, ptr %12, align 8, !tbaa !9
  call void @Py_DECREF(ptr noundef %79)
  br label %80

80:                                               ; preds = %77, %69
  call void @llvm.lifetime.end.p0(i64 8, ptr %12) #6
  call void @llvm.lifetime.end.p0(i64 8, ptr %11) #6
  br label %81

81:                                               ; preds = %80
  br label %82

82:                                               ; preds = %81
  call void @llvm.lifetime.start.p0(i64 8, ptr %13) #6
  %83 = load ptr, ptr %2, align 8, !tbaa !144
  %84 = getelementptr inbounds nuw %struct._is, ptr %83, i32 0, i32 70
  %85 = getelementptr inbounds nuw %struct._Py_interp_cached_objects, ptr %84, i32 0, i32 9
  store ptr %85, ptr %13, align 8, !tbaa !153
  call void @llvm.lifetime.start.p0(i64 8, ptr %14) #6
  %86 = load ptr, ptr %13, align 8, !tbaa !153
  %87 = load ptr, ptr %86, align 8, !tbaa !9
  store ptr %87, ptr %14, align 8, !tbaa !9
  %88 = load ptr, ptr %14, align 8, !tbaa !9
  %89 = icmp ne ptr %88, null
  br i1 %89, label %90, label %93

90:                                               ; preds = %82
  %91 = load ptr, ptr %13, align 8, !tbaa !153
  store ptr null, ptr %91, align 8, !tbaa !9
  %92 = load ptr, ptr %14, align 8, !tbaa !9
  call void @Py_DECREF(ptr noundef %92)
  br label %93

93:                                               ; preds = %90, %82
  call void @llvm.lifetime.end.p0(i64 8, ptr %14) #6
  call void @llvm.lifetime.end.p0(i64 8, ptr %13) #6
  br label %94

94:                                               ; preds = %93
  br label %95

95:                                               ; preds = %94
  call void @llvm.lifetime.start.p0(i64 8, ptr %15) #6
  %96 = load ptr, ptr %2, align 8, !tbaa !144
  %97 = getelementptr inbounds nuw %struct._is, ptr %96, i32 0, i32 70
  %98 = getelementptr inbounds nuw %struct._Py_interp_cached_objects, ptr %97, i32 0, i32 10
  store ptr %98, ptr %15, align 8, !tbaa !153
  call void @llvm.lifetime.start.p0(i64 8, ptr %16) #6
  %99 = load ptr, ptr %15, align 8, !tbaa !153
  %100 = load ptr, ptr %99, align 8, !tbaa !9
  store ptr %100, ptr %16, align 8, !tbaa !9
  %101 = load ptr, ptr %16, align 8, !tbaa !9
  %102 = icmp ne ptr %101, null
  br i1 %102, label %103, label %106

103:                                              ; preds = %95
  %104 = load ptr, ptr %15, align 8, !tbaa !153
  store ptr null, ptr %104, align 8, !tbaa !9
  %105 = load ptr, ptr %16, align 8, !tbaa !9
  call void @Py_DECREF(ptr noundef %105)
  br label %106

106:                                              ; preds = %103, %95
  call void @llvm.lifetime.end.p0(i64 8, ptr %16) #6
  call void @llvm.lifetime.end.p0(i64 8, ptr %15) #6
  br label %107

107:                                              ; preds = %106
  ret void
}