; Function Attrs: nounwind uwtable
define hidden void @_Py_clear_generic_types(ptr noundef captures(none) %0) local_unnamed_addr #0 {
  %2 = getelementptr inbounds nuw i8, ptr %0, i64 224496
  %3 = load ptr, ptr %2, align 8, !tbaa !150
  %.not = icmp eq ptr %3, null
  br i1 %.not, label %Py_DECREF.exit58, label %4

4:                                                ; preds = %1
  store ptr null, ptr %2, align 8, !tbaa !150
  %5 = load i32, ptr %3, align 8, !tbaa !27
  %.not.i57 = icmp sgt i32 %5, -1
  br i1 %.not.i57, label %6, label %Py_DECREF.exit58

6:                                                ; preds = %4
  %7 = add nsw i32 %5, -1
  store i32 %7, ptr %3, align 8, !tbaa !27
  %8 = icmp eq i32 %7, 0
  br i1 %8, label %9, label %Py_DECREF.exit58

9:                                                ; preds = %6
  tail call void @_Py_Dealloc(ptr noundef nonnull %3) #8
  br label %Py_DECREF.exit58

Py_DECREF.exit58:                                 ; preds = %9, %6, %4, %1
  %10 = getelementptr inbounds nuw i8, ptr %0, i64 224504
  %11 = load ptr, ptr %10, align 8, !tbaa !150
  %.not41 = icmp eq ptr %11, null
  br i1 %.not41, label %Py_DECREF.exit56, label %12

12:                                               ; preds = %Py_DECREF.exit58
  store ptr null, ptr %10, align 8, !tbaa !150
  %13 = load i32, ptr %11, align 8, !tbaa !27
  %.not.i55 = icmp sgt i32 %13, -1
  br i1 %.not.i55, label %14, label %Py_DECREF.exit56

14:                                               ; preds = %12
  %15 = add nsw i32 %13, -1
  store i32 %15, ptr %11, align 8, !tbaa !27
  %16 = icmp eq i32 %15, 0
  br i1 %16, label %17, label %Py_DECREF.exit56

17:                                               ; preds = %14
  tail call void @_Py_Dealloc(ptr noundef nonnull %11) #8
  br label %Py_DECREF.exit56

Py_DECREF.exit56:                                 ; preds = %17, %14, %12, %Py_DECREF.exit58
  %18 = getelementptr inbounds nuw i8, ptr %0, i64 224512
  %19 = load ptr, ptr %18, align 8, !tbaa !150
  %.not42 = icmp eq ptr %19, null
  br i1 %.not42, label %Py_DECREF.exit54, label %20

20:                                               ; preds = %Py_DECREF.exit56
  store ptr null, ptr %18, align 8, !tbaa !150
  %21 = load i32, ptr %19, align 8, !tbaa !27
  %.not.i53 = icmp sgt i32 %21, -1
  br i1 %.not.i53, label %22, label %Py_DECREF.exit54

22:                                               ; preds = %20
  %23 = add nsw i32 %21, -1
  store i32 %23, ptr %19, align 8, !tbaa !27
  %24 = icmp eq i32 %23, 0
  br i1 %24, label %25, label %Py_DECREF.exit54

25:                                               ; preds = %22
  tail call void @_Py_Dealloc(ptr noundef nonnull %19) #8
  br label %Py_DECREF.exit54

Py_DECREF.exit54:                                 ; preds = %25, %22, %20, %Py_DECREF.exit56
  %26 = getelementptr inbounds nuw i8, ptr %0, i64 224520
  %27 = load ptr, ptr %26, align 8, !tbaa !150
  %.not43 = icmp eq ptr %27, null
  br i1 %.not43, label %Py_DECREF.exit52, label %28

28:                                               ; preds = %Py_DECREF.exit54
  store ptr null, ptr %26, align 8, !tbaa !150
  %29 = load i32, ptr %27, align 8, !tbaa !27
  %.not.i51 = icmp sgt i32 %29, -1
  br i1 %.not.i51, label %30, label %Py_DECREF.exit52

30:                                               ; preds = %28
  %31 = add nsw i32 %29, -1
  store i32 %31, ptr %27, align 8, !tbaa !27
  %32 = icmp eq i32 %31, 0
  br i1 %32, label %33, label %Py_DECREF.exit52

33:                                               ; preds = %30
  tail call void @_Py_Dealloc(ptr noundef nonnull %27) #8
  br label %Py_DECREF.exit52

Py_DECREF.exit52:                                 ; preds = %33, %30, %28, %Py_DECREF.exit54
  %34 = getelementptr inbounds nuw i8, ptr %0, i64 224528
  %35 = load ptr, ptr %34, align 8, !tbaa !150
  %.not44 = icmp eq ptr %35, null
  br i1 %.not44, label %Py_DECREF.exit50, label %36

36:                                               ; preds = %Py_DECREF.exit52
  store ptr null, ptr %34, align 8, !tbaa !150
  %37 = load i32, ptr %35, align 8, !tbaa !27
  %.not.i49 = icmp sgt i32 %37, -1
  br i1 %.not.i49, label %38, label %Py_DECREF.exit50

38:                                               ; preds = %36
  %39 = add nsw i32 %37, -1
  store i32 %39, ptr %35, align 8, !tbaa !27
  %40 = icmp eq i32 %39, 0
  br i1 %40, label %41, label %Py_DECREF.exit50

41:                                               ; preds = %38
  tail call void @_Py_Dealloc(ptr noundef nonnull %35) #8
  br label %Py_DECREF.exit50

Py_DECREF.exit50:                                 ; preds = %41, %38, %36, %Py_DECREF.exit52
  %42 = getelementptr inbounds nuw i8, ptr %0, i64 224536
  %43 = load ptr, ptr %42, align 8, !tbaa !150
  %.not45 = icmp eq ptr %43, null
  br i1 %.not45, label %Py_DECREF.exit48, label %44

44:                                               ; preds = %Py_DECREF.exit50
  store ptr null, ptr %42, align 8, !tbaa !150
  %45 = load i32, ptr %43, align 8, !tbaa !27
  %.not.i47 = icmp sgt i32 %45, -1
  br i1 %.not.i47, label %46, label %Py_DECREF.exit48

46:                                               ; preds = %44
  %47 = add nsw i32 %45, -1
  store i32 %47, ptr %43, align 8, !tbaa !27
  %48 = icmp eq i32 %47, 0
  br i1 %48, label %49, label %Py_DECREF.exit48

49:                                               ; preds = %46
  tail call void @_Py_Dealloc(ptr noundef nonnull %43) #8
  br label %Py_DECREF.exit48

Py_DECREF.exit48:                                 ; preds = %49, %46, %44, %Py_DECREF.exit50
  %50 = getelementptr inbounds nuw i8, ptr %0, i64 224544
  %51 = load ptr, ptr %50, align 8, !tbaa !150
  %.not46 = icmp eq ptr %51, null
  br i1 %.not46, label %Py_DECREF.exit, label %52

52:                                               ; preds = %Py_DECREF.exit48
  store ptr null, ptr %50, align 8, !tbaa !150
  %53 = load i32, ptr %51, align 8, !tbaa !27
  %.not.i = icmp sgt i32 %53, -1
  br i1 %.not.i, label %54, label %Py_DECREF.exit

54:                                               ; preds = %52
  %55 = add nsw i32 %53, -1
  store i32 %55, ptr %51, align 8, !tbaa !27
  %56 = icmp eq i32 %55, 0
  br i1 %56, label %57, label %Py_DECREF.exit

57:                                               ; preds = %54
  tail call void @_Py_Dealloc(ptr noundef nonnull %51) #8
  br label %Py_DECREF.exit

Py_DECREF.exit:                                   ; preds = %57, %54, %52, %Py_DECREF.exit48
  ret void
}